target datalayout = "e-m:e-p270:32:32-p271:32:32-p272:64:64-i64:64-i128:128-f80:128-n8:16:32:64-S128"
target triple = "x86_64-unknown-linux-gnu"

%"class.icu_75::LocaleBased" = type { ptr, ptr }
%"class.icu_75::BreakIterator" = type <{ %"class.icu_75::UObject", [157 x i8], [157 x i8], [157 x i8], i8 }>
%"class.icu_75::UObject" = type { ptr }

@_ZTVN6icu_757UObjectE = external unnamed_addr constant { [5 x ptr] }, align 8

; Function Attrs: mustprogress nounwind uwtable
define linkonce_odr void @_ZN6icu_7511LocaleBasedC2EPcS1_(ptr noundef nonnull align 8 dereferenceable(16) %this, ptr noundef %validAlias, ptr noundef %actualAlias) unnamed_addr #0 comdat align 2 {
entry:
  %this.addr = alloca ptr, align 8
  %validAlias.addr = alloca ptr, align 8
  %actualAlias.addr = alloca ptr, align 8
  store ptr %this, ptr %this.addr, align 8
  store ptr %validAlias, ptr %validAlias.addr, align 8
  store ptr %actualAlias, ptr %actualAlias.addr, align 8
  %this1 = load ptr, ptr %this.addr, align 8
  %valid = getelementptr inbounds %"class.icu_75::LocaleBased", ptr %this1, i32 0, i32 0
  %0 = load ptr, ptr %validAlias.addr, align 8
  store ptr %0, ptr %valid, align 8
  %actual = getelementptr inbounds %"class.icu_75::LocaleBased", ptr %this1, i32 0, i32 1
  %1 = load ptr, ptr %actualAlias.addr, align 8
  store ptr %1, ptr %actual, align 8
  ret void
}

; Function Attrs: mustprogress nounwind uwtable
define linkonce_odr void @_ZN6icu_757UObjectC2Ev(ptr noundef nonnull align 8 dereferenceable(8) %this) unnamed_addr #0 comdat align 2 {
entry:
  %this.addr = alloca ptr, align 8
  store ptr %this, ptr %this.addr, align 8
  %this1 = load ptr, ptr %this.addr, align 8
  store ptr getelementptr inbounds ({ [5 x ptr] }, ptr @_ZTVN6icu_757UObjectE, i32 0, i32 0, i32 2), ptr %this1, align 8
  ret void
}

; Function Attrs: mustprogress uwtable
define void @_ZN6icu_7513BreakIteratorC2ERKNS_6LocaleES3_(ptr noundef nonnull align 8 dereferenceable(479) %this, ptr noundef nonnull align 8 dereferenceable(217) %valid, ptr noundef nonnull align 8 dereferenceable(217) %actual) unnamed_addr #1 align 2 personality ptr @__gxx_personality_v0 {
entry:
  %this.addr = alloca ptr, align 8
  %valid.addr = alloca ptr, align 8
  %actual.addr = alloca ptr, align 8
  %locBased = alloca %"class.icu_75::LocaleBased", align 8
  %exn.slot = alloca ptr, align 8
  %ehselector.slot = alloca i32, align 4
  store ptr %this, ptr %this.addr, align 8
  store ptr %valid, ptr %valid.addr, align 8
  store ptr %actual, ptr %actual.addr, align 8
  %this1 = load ptr, ptr %this.addr, align 8
  call void @_ZN6icu_757UObjectC2Ev(ptr noundef nonnull align 8 dereferenceable(8) %this1) #10
  store ptr getelementptr inbounds ({ [25 x ptr] }, ptr @_ZTVN6icu_7513BreakIteratorE, i32 0, i32 0, i32 2), ptr %this1, align 8
  %validLocale = getelementptr inbounds %"class.icu_75::BreakIterator", ptr %this1, i32 0, i32 2
  %arraydecay = getelementptr inbounds [157 x i8], ptr %validLocale, i64 0, i64 0
  %actualLocale = getelementptr inbounds %"class.icu_75::BreakIterator", ptr %this1, i32 0, i32 1
  %arraydecay2 = getelementptr inbounds [157 x i8], ptr %actualLocale, i64 0, i64 0
  invoke void @_ZN6icu_7511LocaleBasedC2EPcS1_(ptr noundef nonnull align 8 dereferenceable(16) %locBased, ptr noundef %arraydecay, ptr noundef %arraydecay2)
          to label %invoke.cont unwind label %lpad

invoke.cont:                                      ; preds = %entry
  %0 = load ptr, ptr %valid.addr, align 8
  %1 = load ptr, ptr %actual.addr, align 8
  invoke void @_ZN6icu_7511LocaleBased12setLocaleIDsERKNS_6LocaleES3_(ptr noundef nonnull align 8 dereferenceable(16) %locBased, ptr noundef nonnull align 8 dereferenceable(217) %0, ptr noundef nonnull align 8 dereferenceable(217) %1)
          to label %invoke.cont3 unwind label %lpad

invoke.cont3:                                     ; preds = %invoke.cont
  ret void

lpad:                                             ; preds = %invoke.cont, %entry
  %2 = landingpad { ptr, i32 }
          cleanup
  %3 = extractvalue { ptr, i32 } %2, 0
  store ptr %3, ptr %exn.slot, align 8
  %4 = extractvalue { ptr, i32 } %2, 1
  store i32 %4, ptr %ehselector.slot, align 4
  call void @_ZN6icu_757UObjectD2Ev(ptr noundef nonnull align 8 dereferenceable(8) %this1) #10
  br label %eh.resume

eh.resume:                                        ; preds = %lpad
  %exn = load ptr, ptr %exn.slot, align 8
  %sel = load i32, ptr %ehselector.slot, align 4
  %lpad.val = insertvalue { ptr, i32 } poison, ptr %exn, 0
  %lpad.val4 = insertvalue { ptr, i32 } %lpad.val, i32 %sel, 1
  resume { ptr, i32 } %lpad.val4
}