; Function Attrs: mustprogress uwtable
define void @_ZN6icu_7513BreakIteratorC2ERKNS_6LocaleES3_(ptr noundef nonnull align 8 dereferenceable(479) %this, ptr noundef nonnull align 8 dereferenceable(217) %valid, ptr noundef nonnull align 8 dereferenceable(217) %actual) unnamed_addr #1 align 2 personality ptr @__gxx_personality_v0 {
entry:
  %locBased = alloca %"class.icu_75::LocaleBased", align 8
  store ptr getelementptr inbounds ({ [25 x ptr] }, ptr @_ZTVN6icu_7513BreakIteratorE, i64 0, i32 0, i64 2), ptr %this, align 8
  %validLocale = getelementptr inbounds i8, ptr %this, i64 165
  %actualLocale = getelementptr inbounds i8, ptr %this, i64 8
  store ptr %validLocale, ptr %locBased, align 8
  %actual.i = getelementptr inbounds i8, ptr %locBased, i64 8
  store ptr %actualLocale, ptr %actual.i, align 8
  invoke void @_ZN6icu_7511LocaleBased12setLocaleIDsERKNS_6LocaleES3_(ptr noundef nonnull align 8 dereferenceable(16) %locBased, ptr noundef nonnull align 8 dereferenceable(217) %valid, ptr noundef nonnull align 8 dereferenceable(217) %actual)
          to label %invoke.cont3 unwind label %lpad

invoke.cont3:                                     ; preds = %entry
  ret void

lpad:                                             ; preds = %entry
  %0 = landingpad { ptr, i32 }
          cleanup
  call void @_ZN6icu_757UObjectD2Ev(ptr noundef nonnull align 8 dereferenceable(8) %this) #18
  resume { ptr, i32 } %0
}